target datalayout = "e-m:e-p270:32:32-p271:32:32-p272:64:64-i64:64-i128:128-f80:128-n8:16:32:64-S128"
target triple = "x86_64-pc-linux-gnu"

%"struct.cv::detail::CheckContext" = type { ptr, ptr, i32, i32, ptr, ptr, ptr }
%"class.cv::utils::trace::details::Region" = type <{ ptr, i32, [4 x i8] }>

@_ZZN2cv10HoughLinesERKNS_11_InputArrayERKNS_12_OutputArrayEddiddddE15__cv_check__918 = internal constant %"struct.cv::detail::CheckContext" { ptr @.str, ptr @.str.1, i32 918, i32 0, ptr @.str.2, ptr @.str.3, ptr @.str.4 }, align 8

; Function Attrs: mustprogress uwtable
define internal noundef i32 @_ZL7cvRoundd(double noundef %0) #3 {
  %2 = alloca <2 x double>, align 16
  %3 = alloca double, align 8
  %4 = alloca <2 x double>, align 16
  %5 = alloca double, align 8
  %6 = alloca <2 x double>, align 16
  store double %0, ptr %5, align 8
  %7 = load double, ptr %5, align 8
  store double %7, ptr %3, align 8
  %8 = load double, ptr %3, align 8
  %9 = insertelement <2 x double> poison, double %8, i32 0
  %10 = insertelement <2 x double> %9, double 0.000000e+00, i32 1
  store <2 x double> %10, ptr %4, align 16
  %11 = load <2 x double>, ptr %4, align 16
  store <2 x double> %11, ptr %6, align 16
  %12 = load <2 x double>, ptr %6, align 16
  store <2 x double> %12, ptr %2, align 16
  %13 = load <2 x double>, ptr %2, align 16
  %14 = call noundef i32 @llvm.x86.sse2.cvtsd2si(<2 x double> %13)
  ret i32 %14
}

; Function Attrs: mustprogress uwtable
define void @_ZN2cv10HoughLinesERKNS_11_InputArrayERKNS_12_OutputArrayEddidddd(ptr noundef nonnull align 8 dereferenceable(24) %0, ptr noundef nonnull align 8 dereferenceable(24) %1, double noundef %2, double noundef %3, i32 noundef %4, double noundef %5, double noundef %6, double noundef %7, double noundef %8) #0 personality ptr @__gxx_personality_v0 {
  %10 = alloca ptr, align 8
  %11 = alloca ptr, align 8
  %12 = alloca double, align 8
  %13 = alloca double, align 8
  %14 = alloca i32, align 4
  %15 = alloca double, align 8
  %16 = alloca double, align 8
  %17 = alloca double, align 8
  %18 = alloca double, align 8
  %19 = alloca %"class.cv::utils::trace::details::Region", align 8
  %20 = alloca i32, align 4
  %21 = alloca ptr, align 8
  %22 = alloca i32, align 4
  store ptr %0, ptr %10, align 8
  store ptr %1, ptr %11, align 8
  store double %2, ptr %12, align 8
  store double %3, ptr %13, align 8
  store i32 %4, ptr %14, align 4
  store double %5, ptr %15, align 8
  store double %6, ptr %16, align 8
  store double %7, ptr %17, align 8
  store double %8, ptr %18, align 8
  call void @_ZN2cv5utils5trace7details6RegionC1ERKNS3_21LocationStaticStorageE(ptr noundef nonnull align 8 dereferenceable(12) %19, ptr noundef nonnull align 8 dereferenceable(32) @_ZZN2cv10HoughLinesERKNS_11_InputArrayERKNS_12_OutputArrayEddiddddE25__cv_trace_location_fn912)
  store i32 13, ptr %20, align 4
  %23 = load ptr, ptr %11, align 8
  %24 = invoke noundef zeroext i1 @_ZNK2cv12_OutputArray9fixedTypeEv(ptr noundef nonnull align 8 dereferenceable(24) %23)
          to label %25 unwind label %37

25:                                               ; preds = %9
  br i1 %24, label %26, label %47

26:                                               ; preds = %25
  %27 = load ptr, ptr %11, align 8
  %28 = invoke noundef i32 @_ZNK2cv11_InputArray4typeEi(ptr noundef nonnull align 8 dereferenceable(24) %27, i32 noundef -1)
          to label %29 unwind label %37

29:                                               ; preds = %26
  store i32 %28, ptr %20, align 4
  br label %30

30:                                               ; preds = %29
  %31 = load i32, ptr %20, align 4
  %32 = icmp eq i32 %31, 13
  br i1 %32, label %36, label %33

33:                                               ; preds = %30
  %34 = load i32, ptr %20, align 4
  %35 = icmp eq i32 %34, 21
  br i1 %35, label %36, label %41

36:                                               ; preds = %33, %30
  br label %44

37:                                               ; preds = %79, %76, %65, %53, %41, %26, %9
  %38 = landingpad { ptr, i32 }
          cleanup
  %39 = extractvalue { ptr, i32 } %38, 0
  store ptr %39, ptr %21, align 8
  %40 = extractvalue { ptr, i32 } %38, 1
  store i32 %40, ptr %22, align 4
  call void @_ZN2cv5utils5trace7details6RegionD2Ev(ptr noundef nonnull align 8 dereferenceable(12) %19) #15
  br label %84

41:                                               ; preds = %33
  %42 = load i32, ptr %20, align 4
  invoke void @_ZN2cv6detail20check_failed_MatTypeEiRKNS0_12CheckContextE(i32 noundef %42, ptr noundef nonnull align 8 dereferenceable(48) @_ZZN2cv10HoughLinesERKNS_11_InputArrayERKNS_12_OutputArrayEddiddddE15__cv_check__918) #16
          to label %43 unwind label %37

43:                                               ; preds = %41
  unreachable

44:                                               ; preds = %36
  br label %45

45:                                               ; preds = %44
  br label %46

46:                                               ; preds = %45
  br label %47

47:                                               ; preds = %46, %25
  %48 = load double, ptr %15, align 8
  %49 = fcmp oeq double %48, 0.000000e+00
  br i1 %49, label %50, label %65

50:                                               ; preds = %47
  %51 = load double, ptr %16, align 8
  %52 = fcmp oeq double %51, 0.000000e+00
  br i1 %52, label %53, label %65

53:                                               ; preds = %50
  %54 = load ptr, ptr %10, align 8
  %55 = load ptr, ptr %11, align 8
  %56 = load i32, ptr %20, align 4
  %57 = load double, ptr %12, align 8
  %58 = fptrunc double %57 to float
  %59 = load double, ptr %13, align 8
  %60 = fptrunc double %59 to float
  %61 = load i32, ptr %14, align 4
  %62 = load double, ptr %17, align 8
  %63 = load double, ptr %18, align 8
  invoke void @_ZN2cvL18HoughLinesStandardERKNS_11_InputArrayERKNS_12_OutputArrayEiffiidd(ptr noundef nonnull align 8 dereferenceable(24) %54, ptr noundef nonnull align 8 dereferenceable(24) %55, i32 noundef %56, float noundef %58, float noundef %60, i32 noundef %61, i32 noundef 2147483647, double noundef %62, double noundef %63)
          to label %64 unwind label %37

64:                                               ; preds = %53
  br label %83

65:                                               ; preds = %50, %47
  %66 = load ptr, ptr %10, align 8
  %67 = load ptr, ptr %11, align 8
  %68 = load i32, ptr %20, align 4
  %69 = load double, ptr %12, align 8
  %70 = fptrunc double %69 to float
  %71 = load double, ptr %13, align 8
  %72 = fptrunc double %71 to float
  %73 = load i32, ptr %14, align 4
  %74 = load double, ptr %15, align 8
  %75 = invoke noundef i32 @_ZL7cvRoundd(double noundef %74)
          to label %76 unwind label %37

76:                                               ; preds = %65
  %77 = load double, ptr %16, align 8
  %78 = invoke noundef i32 @_ZL7cvRoundd(double noundef %77)
          to label %79 unwind label %37

79:                                               ; preds = %76
  %80 = load double, ptr %17, align 8
  %81 = load double, ptr %18, align 8
  invoke void @_ZN2cvL14HoughLinesSDivERKNS_11_InputArrayERKNS_12_OutputArrayEiffiiiidd(ptr noundef nonnull align 8 dereferenceable(24) %66, ptr noundef nonnull align 8 dereferenceable(24) %67, i32 noundef %68, float noundef %70, float noundef %72, i32 noundef %73, i32 noundef %75, i32 noundef %78, i32 noundef 2147483647, double noundef %80, double noundef %81)
          to label %82 unwind label %37

82:                                               ; preds = %79
  br label %83

83:                                               ; preds = %82, %64
  call void @_ZN2cv5utils5trace7details6RegionD2Ev(ptr noundef nonnull align 8 dereferenceable(12) %19) #15
  ret void

84:                                               ; preds = %37
  %85 = load ptr, ptr %21, align 8
  %86 = load i32, ptr %22, align 4
  %87 = insertvalue { ptr, i32 } poison, ptr %85, 0
  %88 = insertvalue { ptr, i32 } %87, i32 %86, 1
  resume { ptr, i32 } %88
}