; Function Attrs: mustprogress uwtable
define void @_ZN2cv10HoughLinesERKNS_11_InputArrayERKNS_12_OutputArrayEddidddd(ptr noundef nonnull align 8 dereferenceable(24) %0, ptr noundef nonnull align 8 dereferenceable(24) %1, double noundef %2, double noundef %3, i32 noundef %4, double noundef %5, double noundef %6, double noundef %7, double noundef %8) local_unnamed_addr #0 personality ptr @__gxx_personality_v0 {
  %10 = alloca %"class.cv::utils::trace::details::Region", align 8
  call void @_ZN2cv5utils5trace7details6RegionC1ERKNS3_21LocationStaticStorageE(ptr noundef nonnull align 8 dereferenceable(12) %10, ptr noundef nonnull align 8 dereferenceable(32) @_ZZN2cv10HoughLinesERKNS_11_InputArrayERKNS_12_OutputArrayEddiddddE25__cv_trace_location_fn912)
  %11 = invoke noundef zeroext i1 @_ZNK2cv12_OutputArray9fixedTypeEv(ptr noundef nonnull align 8 dereferenceable(24) %1)
          to label %12 unwind label %16

12:                                               ; preds = %9
  br i1 %11, label %13, label %20

13:                                               ; preds = %12
  %14 = invoke noundef i32 @_ZNK2cv11_InputArray4typeEi(ptr noundef nonnull align 8 dereferenceable(24) %1, i32 noundef -1)
          to label %15 unwind label %16

15:                                               ; preds = %13
  switch i32 %14, label %18 [
    i32 21, label %20
    i32 13, label %20
  ]

16:                                               ; preds = %26, %25, %18, %13, %9
  %17 = landingpad { ptr, i32 }
          cleanup
  call void @_ZN2cv5utils5trace7details6RegionD2Ev(ptr noundef nonnull align 8 dereferenceable(12) %10) #19
  resume { ptr, i32 } %17

18:                                               ; preds = %15
  invoke void @_ZN2cv6detail20check_failed_MatTypeEiRKNS0_12CheckContextE(i32 noundef %14, ptr noundef nonnull align 8 dereferenceable(48) @_ZZN2cv10HoughLinesERKNS_11_InputArrayERKNS_12_OutputArrayEddiddddE15__cv_check__918) #20
          to label %19 unwind label %16

19:                                               ; preds = %18
  unreachable

20:                                               ; preds = %15, %15, %12
  %.0 = phi i32 [ %14, %15 ], [ 13, %12 ], [ %14, %15 ]
  %21 = fcmp oeq double %5, 0.000000e+00
  %22 = fcmp oeq double %6, 0.000000e+00
  %or.cond3 = and i1 %21, %22
  %23 = fptrunc double %2 to float
  %24 = fptrunc double %3 to float
  br i1 %or.cond3, label %25, label %26

25:                                               ; preds = %20
  invoke fastcc void @_ZN2cvL18HoughLinesStandardERKNS_11_InputArrayERKNS_12_OutputArrayEiffiidd(ptr noundef nonnull align 8 dereferenceable(24) %0, ptr noundef nonnull align 8 dereferenceable(24) %1, i32 noundef %.0, float noundef %23, float noundef %24, i32 noundef %4, i32 noundef 2147483647, double noundef %7, double noundef %8)
          to label %31 unwind label %16

26:                                               ; preds = %20
  %27 = insertelement <2 x double> poison, double %5, i64 0
  %28 = call noundef i32 @llvm.x86.sse2.cvtsd2si(<2 x double> %27)
  %29 = insertelement <2 x double> poison, double %6, i64 0
  %30 = call noundef i32 @llvm.x86.sse2.cvtsd2si(<2 x double> %29)
  invoke fastcc void @_ZN2cvL14HoughLinesSDivERKNS_11_InputArrayERKNS_12_OutputArrayEiffiiiidd(ptr noundef nonnull align 8 dereferenceable(24) %0, ptr noundef nonnull align 8 dereferenceable(24) %1, i32 noundef %.0, float noundef %23, float noundef %24, i32 noundef %4, i32 noundef %28, i32 noundef %30, i32 noundef 2147483647, double noundef %7, double noundef %8)
          to label %31 unwind label %16

31:                                               ; preds = %26, %25
  %32 = getelementptr inbounds i8, ptr %10, i64 8
  %33 = load i32, ptr %32, align 8
  %.not.i = icmp eq i32 %33, 0
  br i1 %.not.i, label %_ZN2cv5utils5trace7details6RegionD2Ev.exit, label %34

34:                                               ; preds = %31
  invoke void @_ZN2cv5utils5trace7details6Region7destroyEv(ptr noundef nonnull align 8 dereferenceable(12) %10)
          to label %_ZN2cv5utils5trace7details6RegionD2Ev.exit unwind label %35

35:                                               ; preds = %34
  %36 = landingpad { ptr, i32 }
          catch ptr null
  %37 = extractvalue { ptr, i32 } %36, 0
  call void @__clang_call_terminate(ptr %37) #21
  unreachable

_ZN2cv5utils5trace7details6RegionD2Ev.exit:       ; preds = %31, %34
  ret void
}